target datalayout = "e-m:e-p270:32:32-p271:32:32-p272:64:64-i64:64-i128:128-f80:128-n8:16:32:64-S128"
target triple = "x86_64-pc-linux-gnu"

%struct.FunctionCallInfoBaseData = type { ptr, ptr, ptr, i32, i8, i16, [0 x %struct.NullableDatum] }
%struct.NullableDatum = type { i64, i8 }
%struct.anon = type { i32, [0 x i8] }
%struct.StringInfoData = type { ptr, i32, i32, i32 }
%struct.varattrib_1b = type { i8, [0 x i8] }
%struct.varattrib_1b_e = type { i8, i8, [0 x i8] }
%struct.ArrayBuildStateArr = type { ptr, ptr, ptr, i32, i32, i32, i32, i32, [6 x i32], [6 x i32], i32, i32, i8 }

@CurrentMemoryContext = external global ptr, align 8

; Function Attrs: inlinehint nounwind uwtable
define internal i64 @PointerGetDatum(ptr noundef %0) #2 {
  %2 = alloca ptr, align 8
  store ptr %0, ptr %2, align 8
  %3 = load ptr, ptr %2, align 8
  %4 = ptrtoint ptr %3 to i64
  ret i64 %4
}

; Function Attrs: inlinehint nounwind uwtable
define internal void @initReadOnlyStringInfo(ptr noundef %0, ptr noundef %1, i32 noundef %2) #2 {
  %4 = alloca ptr, align 8
  %5 = alloca ptr, align 8
  %6 = alloca i32, align 4
  store ptr %0, ptr %4, align 8
  store ptr %1, ptr %5, align 8
  store i32 %2, ptr %6, align 4
  %7 = load ptr, ptr %5, align 8
  %8 = load ptr, ptr %4, align 8
  %9 = getelementptr inbounds nuw %struct.StringInfoData, ptr %8, i32 0, i32 0
  store ptr %7, ptr %9, align 8
  %10 = load i32, ptr %6, align 4
  %11 = load ptr, ptr %4, align 8
  %12 = getelementptr inbounds nuw %struct.StringInfoData, ptr %11, i32 0, i32 1
  store i32 %10, ptr %12, align 8
  %13 = load ptr, ptr %4, align 8
  %14 = getelementptr inbounds nuw %struct.StringInfoData, ptr %13, i32 0, i32 2
  store i32 0, ptr %14, align 4
  %15 = load ptr, ptr %4, align 8
  %16 = getelementptr inbounds nuw %struct.StringInfoData, ptr %15, i32 0, i32 3
  store i32 0, ptr %16, align 8
  ret void
}

; Function Attrs: inlinehint nounwind uwtable
define internal ptr @DatumGetPointer(i64 noundef %0) #2 {
  %2 = alloca i64, align 8
  store i64 %0, ptr %2, align 8
  %3 = load i64, ptr %2, align 8
  %4 = inttoptr i64 %3 to ptr
  ret ptr %4
}

; Function Attrs: nounwind uwtable
define dso_local i64 @array_agg_array_deserialize(ptr noundef %0) #0 {
  %2 = alloca ptr, align 8
  %3 = alloca ptr, align 8
  %4 = alloca ptr, align 8
  %5 = alloca %struct.StringInfoData, align 8
  %6 = alloca i32, align 4
  %7 = alloca i32, align 4
  %8 = alloca i32, align 4
  %9 = alloca ptr, align 8
  %10 = alloca i32, align 4
  store ptr %0, ptr %2, align 8
  call void @llvm.lifetime.start.p0(i64 8, ptr %3) #7
  call void @llvm.lifetime.start.p0(i64 8, ptr %4) #7
  call void @llvm.lifetime.start.p0(i64 24, ptr %5) #7
  call void @llvm.lifetime.start.p0(i64 4, ptr %6) #7
  call void @llvm.lifetime.start.p0(i64 4, ptr %7) #7
  call void @llvm.lifetime.start.p0(i64 4, ptr %8) #7
  call void @llvm.lifetime.start.p0(i64 8, ptr %9) #7
  %11 = load ptr, ptr %2, align 8
  %12 = getelementptr inbounds nuw %struct.FunctionCallInfoBaseData, ptr %11, i32 0, i32 6
  %13 = getelementptr inbounds [0 x %struct.NullableDatum], ptr %12, i64 0, i64 0
  %14 = getelementptr inbounds nuw %struct.NullableDatum, ptr %13, i32 0, i32 0
  %15 = load i64, ptr %14, align 8
  %16 = call ptr @DatumGetPointer(i64 noundef %15)
  %17 = call ptr @pg_detoast_datum_packed(ptr noundef %16)
  store ptr %17, ptr %3, align 8
  %18 = load ptr, ptr %3, align 8
  %19 = getelementptr inbounds nuw %struct.varattrib_1b, ptr %18, i32 0, i32 0
  %20 = load i8, ptr %19, align 1
  %21 = zext i8 %20 to i32
  %22 = and i32 %21, 1
  %23 = icmp eq i32 %22, 1
  br i1 %23, label %24, label %28

24:                                               ; preds = %1
  %25 = load ptr, ptr %3, align 8
  %26 = getelementptr inbounds nuw %struct.varattrib_1b, ptr %25, i32 0, i32 1
  %27 = getelementptr inbounds [0 x i8], ptr %26, i64 0, i64 0
  br label %32

28:                                               ; preds = %1
  %29 = load ptr, ptr %3, align 8
  %30 = getelementptr inbounds nuw %struct.anon, ptr %29, i32 0, i32 1
  %31 = getelementptr inbounds [0 x i8], ptr %30, i64 0, i64 0
  br label %32

32:                                               ; preds = %28, %24
  %33 = phi ptr [ %27, %24 ], [ %31, %28 ]
  %34 = load ptr, ptr %3, align 8
  %35 = getelementptr inbounds nuw %struct.varattrib_1b, ptr %34, i32 0, i32 0
  %36 = load i8, ptr %35, align 1
  %37 = zext i8 %36 to i32
  %38 = icmp eq i32 %37, 1
  br i1 %38, label %39, label %67

39:                                               ; preds = %32
  %40 = load ptr, ptr %3, align 8
  %41 = getelementptr inbounds nuw %struct.varattrib_1b_e, ptr %40, i32 0, i32 1
  %42 = load i8, ptr %41, align 1
  %43 = zext i8 %42 to i32
  %44 = icmp eq i32 %43, 1
  br i1 %44, label %45, label %46

45:                                               ; preds = %39
  br label %63

46:                                               ; preds = %39
  %47 = load ptr, ptr %3, align 8
  %48 = getelementptr inbounds nuw %struct.varattrib_1b_e, ptr %47, i32 0, i32 1
  %49 = load i8, ptr %48, align 1
  %50 = zext i8 %49 to i32
  %51 = and i32 %50, -2
  %52 = icmp eq i32 %51, 2
  br i1 %52, label %53, label %54

53:                                               ; preds = %46
  br label %61

54:                                               ; preds = %46
  %55 = load ptr, ptr %3, align 8
  %56 = getelementptr inbounds nuw %struct.varattrib_1b_e, ptr %55, i32 0, i32 1
  %57 = load i8, ptr %56, align 1
  %58 = zext i8 %57 to i32
  %59 = icmp eq i32 %58, 18
  %60 = select i1 %59, i64 16, i64 0
  br label %61

61:                                               ; preds = %54, %53
  %62 = phi i64 [ 8, %53 ], [ %60, %54 ]
  br label %63

63:                                               ; preds = %61, %45
  %64 = phi i64 [ 8, %45 ], [ %62, %61 ]
  %65 = add i64 2, %64
  %66 = sub i64 %65, 2
  br label %93

67:                                               ; preds = %32
  %68 = load ptr, ptr %3, align 8
  %69 = getelementptr inbounds nuw %struct.varattrib_1b, ptr %68, i32 0, i32 0
  %70 = load i8, ptr %69, align 1
  %71 = zext i8 %70 to i32
  %72 = and i32 %71, 1
  %73 = icmp eq i32 %72, 1
  br i1 %73, label %74, label %83

74:                                               ; preds = %67
  %75 = load ptr, ptr %3, align 8
  %76 = getelementptr inbounds nuw %struct.varattrib_1b, ptr %75, i32 0, i32 0
  %77 = load i8, ptr %76, align 1
  %78 = zext i8 %77 to i32
  %79 = ashr i32 %78, 1
  %80 = and i32 %79, 127
  %81 = sext i32 %80 to i64
  %82 = sub i64 %81, 1
  br label %91

83:                                               ; preds = %67
  %84 = load ptr, ptr %3, align 8
  %85 = getelementptr inbounds nuw %struct.anon, ptr %84, i32 0, i32 0
  %86 = load i32, ptr %85, align 4
  %87 = lshr i32 %86, 2
  %88 = and i32 %87, 1073741823
  %89 = sub i32 %88, 4
  %90 = zext i32 %89 to i64
  br label %91

91:                                               ; preds = %83, %74
  %92 = phi i64 [ %82, %74 ], [ %90, %83 ]
  br label %93

93:                                               ; preds = %91, %63
  %94 = phi i64 [ %66, %63 ], [ %92, %91 ]
  %95 = trunc i64 %94 to i32
  call void @initReadOnlyStringInfo(ptr noundef %5, ptr noundef %33, i32 noundef %95)
  %96 = call i32 @pq_getmsgint(ptr noundef %5, i32 noundef 4)
  store i32 %96, ptr %6, align 4
  %97 = call i32 @pq_getmsgint(ptr noundef %5, i32 noundef 4)
  store i32 %97, ptr %7, align 4
  %98 = call i32 @pq_getmsgint(ptr noundef %5, i32 noundef 4)
  store i32 %98, ptr %8, align 4
  %99 = load i32, ptr %7, align 4
  %100 = load i32, ptr %6, align 4
  %101 = load ptr, ptr @CurrentMemoryContext, align 8
  %102 = call ptr @initArrayResultArr(i32 noundef %99, i32 noundef %100, ptr noundef %101, i1 noundef zeroext false)
  store ptr %102, ptr %4, align 8
  %103 = load ptr, ptr %4, align 8
  %104 = getelementptr inbounds nuw %struct.ArrayBuildStateArr, ptr %103, i32 0, i32 3
  store i32 1024, ptr %104, align 8
  br label %105

105:                                              ; preds = %111, %93
  %106 = load ptr, ptr %4, align 8
  %107 = getelementptr inbounds nuw %struct.ArrayBuildStateArr, ptr %106, i32 0, i32 3
  %108 = load i32, ptr %107, align 8
  %109 = load i32, ptr %8, align 4
  %110 = icmp slt i32 %108, %109
  br i1 %110, label %111, label %116

111:                                              ; preds = %105
  %112 = load ptr, ptr %4, align 8
  %113 = getelementptr inbounds nuw %struct.ArrayBuildStateArr, ptr %112, i32 0, i32 3
  %114 = load i32, ptr %113, align 8
  %115 = mul i32 %114, 2
  store i32 %115, ptr %113, align 8
  br label %105, !llvm.loop !15

116:                                              ; preds = %105
  %117 = load ptr, ptr %4, align 8
  %118 = getelementptr inbounds nuw %struct.ArrayBuildStateArr, ptr %117, i32 0, i32 3
  %119 = load i32, ptr %118, align 8
  %120 = sext i32 %119 to i64
  %121 = call ptr @palloc(i64 noundef %120)
  %122 = load ptr, ptr %4, align 8
  %123 = getelementptr inbounds nuw %struct.ArrayBuildStateArr, ptr %122, i32 0, i32 1
  store ptr %121, ptr %123, align 8
  %124 = load i32, ptr %8, align 4
  %125 = call ptr @pq_getmsgbytes(ptr noundef %5, i32 noundef %124)
  store ptr %125, ptr %9, align 8
  %126 = load ptr, ptr %4, align 8
  %127 = getelementptr inbounds nuw %struct.ArrayBuildStateArr, ptr %126, i32 0, i32 1
  %128 = load ptr, ptr %127, align 8
  %129 = load ptr, ptr %9, align 8
  %130 = load i32, ptr %8, align 4
  %131 = sext i32 %130 to i64
  call void @llvm.memcpy.p0.p0.i64(ptr align 1 %128, ptr align 1 %129, i64 %131, i1 false)
  %132 = load i32, ptr %8, align 4
  %133 = load ptr, ptr %4, align 8
  %134 = getelementptr inbounds nuw %struct.ArrayBuildStateArr, ptr %133, i32 0, i32 4
  store i32 %132, ptr %134, align 4
  %135 = call i32 @pq_getmsgint(ptr noundef %5, i32 noundef 4)
  %136 = load ptr, ptr %4, align 8
  %137 = getelementptr inbounds nuw %struct.ArrayBuildStateArr, ptr %136, i32 0, i32 3
  store i32 %135, ptr %137, align 8
  %138 = call i32 @pq_getmsgint(ptr noundef %5, i32 noundef 4)
  %139 = load ptr, ptr %4, align 8
  %140 = getelementptr inbounds nuw %struct.ArrayBuildStateArr, ptr %139, i32 0, i32 5
  store i32 %138, ptr %140, align 8
  %141 = load ptr, ptr %4, align 8
  %142 = getelementptr inbounds nuw %struct.ArrayBuildStateArr, ptr %141, i32 0, i32 5
  %143 = load i32, ptr %142, align 8
  %144 = icmp sgt i32 %143, 0
  br i1 %144, label %145, label %164

145:                                              ; preds = %116
  call void @llvm.lifetime.start.p0(i64 4, ptr %10) #7
  %146 = load ptr, ptr %4, align 8
  %147 = getelementptr inbounds nuw %struct.ArrayBuildStateArr, ptr %146, i32 0, i32 5
  %148 = load i32, ptr %147, align 8
  %149 = add i32 %148, 7
  %150 = sdiv i32 %149, 8
  store i32 %150, ptr %10, align 4
  %151 = load i32, ptr %10, align 4
  %152 = sext i32 %151 to i64
  %153 = call ptr @palloc(i64 noundef %152)
  %154 = load ptr, ptr %4, align 8
  %155 = getelementptr inbounds nuw %struct.ArrayBuildStateArr, ptr %154, i32 0, i32 2
  store ptr %153, ptr %155, align 8
  %156 = load i32, ptr %10, align 4
  %157 = call ptr @pq_getmsgbytes(ptr noundef %5, i32 noundef %156)
  store ptr %157, ptr %9, align 8
  %158 = load ptr, ptr %4, align 8
  %159 = getelementptr inbounds nuw %struct.ArrayBuildStateArr, ptr %158, i32 0, i32 2
  %160 = load ptr, ptr %159, align 8
  %161 = load ptr, ptr %9, align 8
  %162 = load i32, ptr %10, align 4
  %163 = sext i32 %162 to i64
  call void @llvm.memcpy.p0.p0.i64(ptr align 1 %160, ptr align 1 %161, i64 %163, i1 false)
  call void @llvm.lifetime.end.p0(i64 4, ptr %10) #7
  br label %167

164:                                              ; preds = %116
  %165 = load ptr, ptr %4, align 8
  %166 = getelementptr inbounds nuw %struct.ArrayBuildStateArr, ptr %165, i32 0, i32 2
  store ptr null, ptr %166, align 8
  br label %167

167:                                              ; preds = %164, %145
  %168 = call i32 @pq_getmsgint(ptr noundef %5, i32 noundef 4)
  %169 = load ptr, ptr %4, align 8
  %170 = getelementptr inbounds nuw %struct.ArrayBuildStateArr, ptr %169, i32 0, i32 6
  store i32 %168, ptr %170, align 4
  %171 = call i32 @pq_getmsgint(ptr noundef %5, i32 noundef 4)
  %172 = load ptr, ptr %4, align 8
  %173 = getelementptr inbounds nuw %struct.ArrayBuildStateArr, ptr %172, i32 0, i32 7
  store i32 %171, ptr %173, align 8
  %174 = call ptr @pq_getmsgbytes(ptr noundef %5, i32 noundef 24)
  store ptr %174, ptr %9, align 8
  %175 = load ptr, ptr %4, align 8
  %176 = getelementptr inbounds nuw %struct.ArrayBuildStateArr, ptr %175, i32 0, i32 8
  %177 = getelementptr inbounds [6 x i32], ptr %176, i64 0, i64 0
  %178 = load ptr, ptr %9, align 8
  call void @llvm.memcpy.p0.p0.i64(ptr align 4 %177, ptr align 1 %178, i64 24, i1 false)
  %179 = call ptr @pq_getmsgbytes(ptr noundef %5, i32 noundef 24)
  store ptr %179, ptr %9, align 8
  %180 = load ptr, ptr %4, align 8
  %181 = getelementptr inbounds nuw %struct.ArrayBuildStateArr, ptr %180, i32 0, i32 9
  %182 = getelementptr inbounds [6 x i32], ptr %181, i64 0, i64 0
  %183 = load ptr, ptr %9, align 8
  call void @llvm.memcpy.p0.p0.i64(ptr align 4 %182, ptr align 1 %183, i64 24, i1 false)
  call void @pq_getmsgend(ptr noundef %5)
  %184 = load ptr, ptr %4, align 8
  %185 = call i64 @PointerGetDatum(ptr noundef %184)
  call void @llvm.lifetime.end.p0(i64 8, ptr %9) #7
  call void @llvm.lifetime.end.p0(i64 4, ptr %8) #7
  call void @llvm.lifetime.end.p0(i64 4, ptr %7) #7
  call void @llvm.lifetime.end.p0(i64 4, ptr %6) #7
  call void @llvm.lifetime.end.p0(i64 24, ptr %5) #7
  call void @llvm.lifetime.end.p0(i64 8, ptr %4) #7
  call void @llvm.lifetime.end.p0(i64 8, ptr %3) #7
  ret i64 %185
}