; Function Attrs: nounwind uwtable
define dso_local i64 @array_agg_array_deserialize(ptr noundef readonly captures(none) %0) local_unnamed_addr #0 {
  %2 = alloca %struct.StringInfoData, align 8
  call void @llvm.lifetime.start.p0(i64 24, ptr nonnull %2) #10
  %3 = getelementptr inbounds nuw i8, ptr %0, i64 32
  %4 = load i64, ptr %3, align 8
  %5 = inttoptr i64 %4 to ptr
  %6 = tail call ptr @pg_detoast_datum_packed(ptr noundef %5) #10
  %7 = load i8, ptr %6, align 1
  %8 = zext i8 %7 to i32
  %9 = and i32 %8, 1
  %.not = icmp eq i32 %9, 0
  %10 = getelementptr inbounds nuw i8, ptr %6, i64 1
  %11 = getelementptr inbounds nuw i8, ptr %6, i64 4
  %12 = select i1 %.not, ptr %11, ptr %10
  %13 = icmp eq i8 %7, 1
  br i1 %13, label %14, label %22

14:                                               ; preds = %1
  %15 = load i8, ptr %10, align 1
  %16 = icmp eq i8 %15, 1
  %17 = and i8 %15, -2
  %18 = icmp eq i8 %17, 2
  %or.cond = or i1 %16, %18
  %19 = icmp eq i8 %15, 18
  %20 = select i1 %19, i32 16, i32 0
  %21 = select i1 %or.cond, i32 8, i32 %20
  br label %30

22:                                               ; preds = %1
  br i1 %.not, label %26, label %23

23:                                               ; preds = %22
  %24 = lshr i32 %8, 1
  %25 = add nsw i32 %24, -1
  br label %30

26:                                               ; preds = %22
  %27 = load i32, ptr %6, align 4
  %28 = lshr i32 %27, 2
  %29 = add nsw i32 %28, -4
  br label %30

30:                                               ; preds = %23, %26, %14
  %31 = phi i32 [ %21, %14 ], [ %25, %23 ], [ %29, %26 ]
  store ptr %12, ptr %2, align 8
  %32 = getelementptr inbounds nuw i8, ptr %2, i64 8
  store i32 %31, ptr %32, align 8
  %33 = getelementptr inbounds nuw i8, ptr %2, i64 12
  store i32 0, ptr %33, align 4
  %34 = getelementptr inbounds nuw i8, ptr %2, i64 16
  store i32 0, ptr %34, align 8
  %35 = call i32 @pq_getmsgint(ptr noundef nonnull %2, i32 noundef 4) #10
  %36 = call i32 @pq_getmsgint(ptr noundef nonnull %2, i32 noundef 4) #10
  %37 = call i32 @pq_getmsgint(ptr noundef nonnull %2, i32 noundef 4) #10
  %38 = load ptr, ptr @CurrentMemoryContext, align 8
  %39 = call ptr @initArrayResultArr(i32 noundef %36, i32 noundef %35, ptr noundef %38, i1 noundef zeroext false) #10
  br label %40

40:                                               ; preds = %40, %30
  %storemerge = phi i32 [ 1024, %30 ], [ %42, %40 ]
  %41 = icmp slt i32 %storemerge, %37
  %42 = shl i32 %storemerge, 1
  br i1 %41, label %40, label %43, !llvm.loop !54

43:                                               ; preds = %40
  %44 = getelementptr inbounds nuw i8, ptr %39, i64 24
  store i32 %storemerge, ptr %44, align 8
  %45 = sext i32 %storemerge to i64
  %46 = call ptr @palloc(i64 noundef %45) #10
  %47 = getelementptr inbounds nuw i8, ptr %39, i64 8
  store ptr %46, ptr %47, align 8
  %48 = call ptr @pq_getmsgbytes(ptr noundef nonnull %2, i32 noundef %37) #10
  %49 = load ptr, ptr %47, align 8
  %50 = sext i32 %37 to i64
  call void @llvm.memcpy.p0.p0.i64(ptr align 1 %49, ptr align 1 %48, i64 %50, i1 false)
  %51 = getelementptr inbounds nuw i8, ptr %39, i64 28
  store i32 %37, ptr %51, align 4
  %52 = call i32 @pq_getmsgint(ptr noundef nonnull %2, i32 noundef 4) #10
  store i32 %52, ptr %44, align 8
  %53 = call i32 @pq_getmsgint(ptr noundef nonnull %2, i32 noundef 4) #10
  %54 = getelementptr inbounds nuw i8, ptr %39, i64 32
  store i32 %53, ptr %54, align 8
  %55 = icmp sgt i32 %53, 0
  br i1 %55, label %56, label %64

56:                                               ; preds = %43
  %57 = add nuw i32 %53, 7
  %58 = sdiv i32 %57, 8
  %59 = sext i32 %58 to i64
  %60 = call ptr @palloc(i64 noundef %59) #10
  %61 = getelementptr inbounds nuw i8, ptr %39, i64 16
  store ptr %60, ptr %61, align 8
  %62 = call ptr @pq_getmsgbytes(ptr noundef nonnull %2, i32 noundef %58) #10
  %63 = load ptr, ptr %61, align 8
  call void @llvm.memcpy.p0.p0.i64(ptr align 1 %63, ptr align 1 %62, i64 %59, i1 false)
  br label %66

64:                                               ; preds = %43
  %65 = getelementptr inbounds nuw i8, ptr %39, i64 16
  store ptr null, ptr %65, align 8
  br label %66

66:                                               ; preds = %64, %56
  %67 = call i32 @pq_getmsgint(ptr noundef nonnull %2, i32 noundef 4) #10
  %68 = getelementptr inbounds nuw i8, ptr %39, i64 36
  store i32 %67, ptr %68, align 4
  %69 = call i32 @pq_getmsgint(ptr noundef nonnull %2, i32 noundef 4) #10
  %70 = getelementptr inbounds nuw i8, ptr %39, i64 40
  store i32 %69, ptr %70, align 8
  %71 = call ptr @pq_getmsgbytes(ptr noundef nonnull %2, i32 noundef 24) #10
  %72 = getelementptr inbounds nuw i8, ptr %39, i64 44
  call void @llvm.memcpy.p0.p0.i64(ptr noundef nonnull align 4 dereferenceable(24) %72, ptr noundef nonnull align 1 dereferenceable(24) %71, i64 24, i1 false)
  %73 = call ptr @pq_getmsgbytes(ptr noundef nonnull %2, i32 noundef 24) #10
  %74 = getelementptr inbounds nuw i8, ptr %39, i64 68
  call void @llvm.memcpy.p0.p0.i64(ptr noundef nonnull align 4 dereferenceable(24) %74, ptr noundef nonnull align 1 dereferenceable(24) %73, i64 24, i1 false)
  call void @pq_getmsgend(ptr noundef nonnull %2) #10
  %75 = ptrtoint ptr %39 to i64
  call void @llvm.lifetime.end.p0(i64 24, ptr nonnull %2) #10
  ret i64 %75
}